
lenet.riscv:     file format elf32-littleriscv


Disassembly of section .text.init:

00000000 <_start>:
   0:	00000093          	li	ra,0
   4:	00000113          	li	sp,0
   8:	00000193          	li	gp,0
   c:	00000213          	li	tp,0
  10:	00000293          	li	t0,0
  14:	00000313          	li	t1,0
  18:	00000393          	li	t2,0
  1c:	00000413          	li	s0,0
  20:	00000493          	li	s1,0
  24:	00000513          	li	a0,0
  28:	00000593          	li	a1,0
  2c:	00000613          	li	a2,0
  30:	00000693          	li	a3,0
  34:	00000713          	li	a4,0
  38:	00000793          	li	a5,0
  3c:	00000813          	li	a6,0
  40:	00000893          	li	a7,0
  44:	00000913          	li	s2,0
  48:	00000993          	li	s3,0
  4c:	00000a13          	li	s4,0
  50:	00000a93          	li	s5,0
  54:	00000b13          	li	s6,0
  58:	00000b93          	li	s7,0
  5c:	00000c13          	li	s8,0
  60:	00000c93          	li	s9,0
  64:	00000d13          	li	s10,0
  68:	00000d93          	li	s11,0
  6c:	00000e13          	li	t3,0
  70:	00000e93          	li	t4,0
  74:	00000f13          	li	t5,0
  78:	00000f93          	li	t6,0
  7c:	0001e2b7          	lui	t0,0x1e
  80:	60028293          	addi	t0,t0,1536 # 1e600 <__global_pointer$+0x1b9f8>
  84:	3002a073          	csrs	mstatus,t0
  88:	00100293          	li	t0,1
  8c:	01f29293          	slli	t0,t0,0x1f
  90:	0002ca63          	bltz	t0,a4 <_start+0xa4>
  94:	00100513          	li	a0,1
  98:	00002297          	auipc	t0,0x2
  9c:	32a2a423          	sw	a0,808(t0) # 23c0 <tohost>
  a0:	ff5ff06f          	j	94 <_start+0x94>
  a4:	00000297          	auipc	t0,0x0
  a8:	00c28293          	addi	t0,t0,12 # b0 <_start+0xb0>
  ac:	30529073          	csrw	mtvec,t0
  b0:	30529073          	csrw	mtvec,t0
  b4:	00003197          	auipc	gp,0x3
  b8:	b5418193          	addi	gp,gp,-1196 # 2c08 <__global_pointer$>
  bc:	84718213          	addi	tp,gp,-1977 # 244f <_end+0x3f>
  c0:	fc027213          	andi	tp,tp,-64
  c4:	f1402573          	csrr	a0,mhartid
  c8:	00100593          	li	a1,1
  cc:	00b57063          	bgeu	a0,a1,cc <_start+0xcc>
  d0:	00150113          	addi	sp,a0,1
  d4:	01111113          	slli	sp,sp,0x11
  d8:	00410133          	add	sp,sp,tp
  dc:	01151613          	slli	a2,a0,0x11
  e0:	00c20233          	add	tp,tp,a2
  e4:	2980106f          	j	137c <_init>
  e8:	2190106f          	j	1b00 <exit>

Disassembly of section .text:

00001000 <rvv_conv2d>:
    1000:	16e05463          	blez	a4,1168 <rvv_conv2d+0x168>
    1004:	fd010113          	addi	sp,sp,-48
    1008:	02912423          	sw	s1,40(sp)
    100c:	01812623          	sw	s8,12(sp)
    1010:	0c007fd7          	vsetvli	t6,zero,e8,m1,ta,ma
    1014:	ffc78493          	addi	s1,a5,-4
    1018:	ffc80c13          	addi	s8,a6,-4
    101c:	01512c23          	sw	s5,24(sp)
    1020:	029c0c33          	mul	s8,s8,s1
    1024:	01612a23          	sw	s6,20(sp)
    1028:	00169b13          	slli	s6,a3,0x1
    102c:	00db0b33          	add	s6,s6,a3
    1030:	003b1b13          	slli	s6,s6,0x3
    1034:	00db0b33          	add	s6,s6,a3
    1038:	02812623          	sw	s0,44(sp)
    103c:	03212223          	sw	s2,36(sp)
    1040:	03312023          	sw	s3,32(sp)
    1044:	01412e23          	sw	s4,28(sp)
    1048:	030f8ab3          	mul	s5,t6,a6
    104c:	01712823          	sw	s7,16(sp)
    1050:	01912423          	sw	s9,8(sp)
    1054:	00070993          	mv	s3,a4
    1058:	00058c93          	mv	s9,a1
    105c:	00050913          	mv	s2,a0
    1060:	00060a13          	mv	s4,a2
    1064:	00068393          	mv	t2,a3
    1068:	00080593          	mv	a1,a6
    106c:	01660333          	add	t1,a2,s6
    1070:	03078e33          	mul	t3,a5,a6
    1074:	00000413          	li	s0,0
    1078:	00000293          	li	t0,0
    107c:	00000b93          	li	s7,0
    1080:	00400713          	li	a4,4
    1084:	08f74463          	blt	a4,a5,110c <rvv_conv2d+0x10c>
    1088:	001b8b93          	addi	s7,s7,1
    108c:	018282b3          	add	t0,t0,s8
    1090:	01630333          	add	t1,t1,s6
    1094:	01640433          	add	s0,s0,s6
    1098:	ff7996e3          	bne	s3,s7,1084 <rvv_conv2d+0x84>
    109c:	02c12403          	lw	s0,44(sp)
    10a0:	02812483          	lw	s1,40(sp)
    10a4:	02412903          	lw	s2,36(sp)
    10a8:	02012983          	lw	s3,32(sp)
    10ac:	01c12a03          	lw	s4,28(sp)
    10b0:	01812a83          	lw	s5,24(sp)
    10b4:	01412b03          	lw	s6,20(sp)
    10b8:	01012b83          	lw	s7,16(sp)
    10bc:	00c12c03          	lw	s8,12(sp)
    10c0:	00812c83          	lw	s9,8(sp)
    10c4:	03010113          	addi	sp,sp,48
    10c8:	00008067          	ret
    10cc:	01950513          	addi	a0,a0,25
    10d0:	01c80833          	add	a6,a6,t3
    10d4:	06a31263          	bne	t1,a0,1138 <rvv_conv2d+0x138>
    10d8:	03d687b3          	mul	a5,a3,t4
    10dc:	01df8eb3          	add	t4,t6,t4
    10e0:	41ff0f33          	sub	t5,t5,t6
    10e4:	015888b3          	add	a7,a7,s5
    10e8:	005787b3          	add	a5,a5,t0
    10ec:	00f907b3          	add	a5,s2,a5
    10f0:	020780a7          	vse8.v	v1,(a5)
    10f4:	029ec263          	blt	t4,s1,1118 <rvv_conv2d+0x118>
    10f8:	001b8b93          	addi	s7,s7,1
    10fc:	018282b3          	add	t0,t0,s8
    1100:	01630333          	add	t1,t1,s6
    1104:	01640433          	add	s0,s0,s6
    1108:	f9798ae3          	beq	s3,s7,109c <rvv_conv2d+0x9c>
    110c:	000c8893          	mv	a7,s9
    1110:	00048f13          	mv	t5,s1
    1114:	00000e93          	li	t4,0
    1118:	000f0693          	mv	a3,t5
    111c:	01eff463          	bgeu	t6,t5,1124 <rvv_conv2d+0x124>
    1120:	000f8693          	mv	a3,t6
    1124:	0c06f6d7          	vsetvli	a3,a3,e8,m1,ta,ma
    1128:	fa7058e3          	blez	t2,10d8 <rvv_conv2d+0xd8>
    112c:	00468613          	addi	a2,a3,4
    1130:	008a0533          	add	a0,s4,s0
    1134:	00000813          	li	a6,0
    1138:	cc0cf057          	vsetivli	zero,25,e8,m1,ta,ma
    113c:	02050187          	vle8.v	v3,(a0)
    1140:	01180733          	add	a4,a6,a7
    1144:	00500793          	li	a5,5
    1148:	0c067057          	vsetvli	zero,a2,e8,m1,ta,ma
    114c:	02070107          	vle8.v	v2,(a4)
    1150:	fff78793          	addi	a5,a5,-1
    1154:	0c06f057          	vsetvli	zero,a3,e8,m1,ta,ma
    1158:	00b70733          	add	a4,a4,a1
    115c:	b63120d7          	vmacc.vv	v1,v2,v3
    1160:	fe0794e3          	bnez	a5,1148 <rvv_conv2d+0x148>
    1164:	f69ff06f          	j	10cc <rvv_conv2d+0xcc>
    1168:	00008067          	ret

0000116c <rvv_maxpool>:
    116c:	12c05e63          	blez	a2,12a8 <rvv_maxpool+0x13c>
    1170:	fe010113          	addi	sp,sp,-32
    1174:	01312823          	sw	s3,16(sp)
    1178:	01f6d793          	srli	a5,a3,0x1f
    117c:	01f75993          	srli	s3,a4,0x1f
    1180:	0c0072d7          	vsetvli	t0,zero,e8,m1,ta,ma
    1184:	00e989b3          	add	s3,s3,a4
    1188:	00d787b3          	add	a5,a5,a3
    118c:	4019d993          	srai	s3,s3,0x1
    1190:	4017d793          	srai	a5,a5,0x1
    1194:	00129f13          	slli	t5,t0,0x1
    1198:	01412623          	sw	s4,12(sp)
    119c:	01512423          	sw	s5,8(sp)
    11a0:	00058a13          	mv	s4,a1
    11a4:	02f989b3          	mul	s3,s3,a5
    11a8:	00812e23          	sw	s0,28(sp)
    11ac:	00912c23          	sw	s1,24(sp)
    11b0:	01212a23          	sw	s2,20(sp)
    11b4:	00060493          	mv	s1,a2
    11b8:	00000393          	li	t2,0
    11bc:	00000913          	li	s2,0
    11c0:	00000413          	li	s0,0
    11c4:	02ef05b3          	mul	a1,t5,a4
    11c8:	02d70ab3          	mul	s5,a4,a3
    11cc:	02d04a63          	bgtz	a3,1200 <rvv_maxpool+0x94>
    11d0:	00140413          	addi	s0,s0,1
    11d4:	01590933          	add	s2,s2,s5
    11d8:	013383b3          	add	t2,t2,s3
    11dc:	fe8498e3          	bne	s1,s0,11cc <rvv_maxpool+0x60>
    11e0:	01c12403          	lw	s0,28(sp)
    11e4:	01812483          	lw	s1,24(sp)
    11e8:	01412903          	lw	s2,20(sp)
    11ec:	01012983          	lw	s3,16(sp)
    11f0:	00c12a03          	lw	s4,12(sp)
    11f4:	00812a83          	lw	s5,8(sp)
    11f8:	02010113          	addi	sp,sp,32
    11fc:	00008067          	ret
    1200:	f8000613          	li	a2,-128
    1204:	012a0333          	add	t1,s4,s2
    1208:	00068e13          	mv	t3,a3
    120c:	00000893          	li	a7,0
    1210:	01f8d793          	srli	a5,a7,0x1f
    1214:	011787b3          	add	a5,a5,a7
    1218:	401e5813          	srai	a6,t3,0x1
    121c:	00670fb3          	add	t6,a4,t1
    1220:	4017d793          	srai	a5,a5,0x1
    1224:	01e888b3          	add	a7,a7,t5
    1228:	0102f463          	bgeu	t0,a6,1230 <rvv_maxpool+0xc4>
    122c:	00028813          	mv	a6,t0
    1230:	0c087857          	vsetvli	a6,a6,e8,m1,ta,ma
    1234:	00181e93          	slli	t4,a6,0x1
    1238:	0c0ef057          	vsetvli	zero,t4,e8,m1,ta,ma
    123c:	02030107          	vle8.v	v2,(t1)
    1240:	0c087057          	vsetvli	zero,a6,e8,m1,ta,ma
    1244:	5e0641d7          	vmv.v.x	v3,a2
    1248:	0c0ef057          	vsetvli	zero,t4,e8,m1,ta,ma
    124c:	020f8087          	vle8.v	v1,(t6)
    1250:	0c087057          	vsetvli	zero,a6,e8,m1,ta,ma
    1254:	1e21a157          	vredmax.vs	v2,v2,v3
    1258:	030787b3          	mul	a5,a5,a6
    125c:	41ee0e33          	sub	t3,t3,t5
    1260:	00b30333          	add	t1,t1,a1
    1264:	1e1120d7          	vredmax.vs	v1,v1,v2
    1268:	007787b3          	add	a5,a5,t2
    126c:	00f507b3          	add	a5,a0,a5
    1270:	020780a7          	vse8.v	v1,(a5)
    1274:	f8d8cee3          	blt	a7,a3,1210 <rvv_maxpool+0xa4>
    1278:	00140413          	addi	s0,s0,1
    127c:	01590933          	add	s2,s2,s5
    1280:	013383b3          	add	t2,t2,s3
    1284:	f88490e3          	bne	s1,s0,1204 <rvv_maxpool+0x98>
    1288:	01c12403          	lw	s0,28(sp)
    128c:	01812483          	lw	s1,24(sp)
    1290:	01412903          	lw	s2,20(sp)
    1294:	01012983          	lw	s3,16(sp)
    1298:	00c12a03          	lw	s4,12(sp)
    129c:	00812a83          	lw	s5,8(sp)
    12a0:	02010113          	addi	sp,sp,32
    12a4:	00008067          	ret
    12a8:	00008067          	ret

000012ac <rvv_fc>:
    12ac:	0c007857          	vsetvli	a6,zero,e8,m1,ta,ma
    12b0:	02e05263          	blez	a4,12d4 <rvv_fc+0x28>
    12b4:	5e003257          	vmv.v.i	v4,0
    12b8:	00e50eb3          	add	t4,a0,a4
    12bc:	424027d7          	vmv.x.s	a5,v4
    12c0:	02d04663          	bgtz	a3,12ec <rvv_fc+0x40>
    12c4:	00f50023          	sb	a5,0(a0)
    12c8:	00150513          	addi	a0,a0,1
    12cc:	00d60633          	add	a2,a2,a3
    12d0:	ffd518e3          	bne	a0,t4,12c0 <rvv_fc+0x14>
    12d4:	00008067          	ret
    12d8:	421027d7          	vmv.x.s	a5,v1
    12dc:	00150513          	addi	a0,a0,1
    12e0:	fef50fa3          	sb	a5,-1(a0)
    12e4:	00d60633          	add	a2,a2,a3
    12e8:	05d50263          	beq	a0,t4,132c <rvv_fc+0x80>
    12ec:	9e4030d7          	vmv1r.v	v1,v4
    12f0:	00068893          	mv	a7,a3
    12f4:	00000713          	li	a4,0
    12f8:	00e60e33          	add	t3,a2,a4
    12fc:	00e58333          	add	t1,a1,a4
    1300:	00080793          	mv	a5,a6
    1304:	00e80733          	add	a4,a6,a4
    1308:	0108f463          	bgeu	a7,a6,1310 <rvv_fc+0x64>
    130c:	00088793          	mv	a5,a7
    1310:	0c07f057          	vsetvli	zero,a5,e8,m1,ta,ma
    1314:	020e0187          	vle8.v	v3,(t3)
    1318:	02030107          	vle8.v	v2,(t1)
    131c:	410888b3          	sub	a7,a7,a6
    1320:	b621a0d7          	vmacc.vv	v1,v3,v2
    1324:	fcd74ae3          	blt	a4,a3,12f8 <rvv_fc+0x4c>
    1328:	fb1ff06f          	j	12d8 <rvv_fc+0x2c>
    132c:	00008067          	ret

00001330 <tohost_exit>:
    1330:	00151693          	slli	a3,a0,0x1
    1334:	0016e713          	ori	a4,a3,1
    1338:	00001697          	auipc	a3,0x1
    133c:	08868693          	addi	a3,a3,136 # 23c0 <tohost>
    1340:	00000793          	li	a5,0
    1344:	00e6a023          	sw	a4,0(a3)
    1348:	00f6a223          	sw	a5,4(a3)
    134c:	0000006f          	j	134c <tohost_exit+0x1c>

00001350 <handle_trap>:
    1350:	00001637          	lui	a2,0x1
    1354:	00001797          	auipc	a5,0x1
    1358:	06c78793          	addi	a5,a5,108 # 23c0 <tohost>
    135c:	a7360613          	addi	a2,a2,-1421 # a73 <_start+0xa73>
    1360:	00000693          	li	a3,0
    1364:	00c7a023          	sw	a2,0(a5)
    1368:	00d7a223          	sw	a3,4(a5)
    136c:	0000006f          	j	136c <handle_trap+0x1c>

00001370 <thread_entry>:
    1370:	00051463          	bnez	a0,1378 <thread_entry+0x8>
    1374:	00008067          	ret
    1378:	0000006f          	j	1378 <thread_entry+0x8>

0000137c <_init>:
    137c:	ff010113          	addi	sp,sp,-16
    1380:	00000593          	li	a1,0
    1384:	00000513          	li	a0,0
    1388:	00112623          	sw	ra,12(sp)
    138c:	778000ef          	jal	1b04 <main>
    1390:	770000ef          	jal	1b00 <exit>

00001394 <uart_putc>:
    1394:	30000737          	lui	a4,0x30000
    1398:	00470713          	addi	a4,a4,4 # 30000004 <__global_pointer$+0x2fffd3fc>
    139c:	00072783          	lw	a5,0(a4)
    13a0:	0017f793          	andi	a5,a5,1
    13a4:	fe079ce3          	bnez	a5,139c <uart_putc+0x8>
    13a8:	300007b7          	lui	a5,0x30000
    13ac:	00a7a623          	sw	a0,12(a5) # 3000000c <__global_pointer$+0x2fffd404>
    13b0:	00008067          	ret

000013b4 <uart_getc>:
    13b4:	30000737          	lui	a4,0x30000
    13b8:	00472783          	lw	a5,4(a4) # 30000004 <__global_pointer$+0x2fffd3fc>
    13bc:	00470713          	addi	a4,a4,4
    13c0:	ffd7f793          	andi	a5,a5,-3
    13c4:	00f72023          	sw	a5,0(a4)
    13c8:	00072783          	lw	a5,0(a4)
    13cc:	0027f793          	andi	a5,a5,2
    13d0:	fe078ce3          	beqz	a5,13c8 <uart_getc+0x14>
    13d4:	300007b7          	lui	a5,0x30000
    13d8:	0107a503          	lw	a0,16(a5) # 30000010 <__global_pointer$+0x2fffd408>
    13dc:	0ff57513          	zext.b	a0,a0
    13e0:	00008067          	ret

000013e4 <uart_init>:
    13e4:	300007b7          	lui	a5,0x30000
    13e8:	00300713          	li	a4,3
    13ec:	00e7a023          	sw	a4,0(a5) # 30000000 <__global_pointer$+0x2fffd3f8>
    13f0:	00000797          	auipc	a5,0x0
    13f4:	fa478793          	addi	a5,a5,-92 # 1394 <uart_putc>
    13f8:	00001717          	auipc	a4,0x1
    13fc:	00f72a23          	sw	a5,20(a4) # 240c <xfunc_out>
    1400:	00008067          	ret

00001404 <xputc>:
    1404:	00001697          	auipc	a3,0x1
    1408:	00468693          	addi	a3,a3,4 # 2408 <outptr>
    140c:	0006a703          	lw	a4,0(a3)
    1410:	00070a63          	beqz	a4,1424 <xputc+0x20>
    1414:	00170613          	addi	a2,a4,1
    1418:	00a70023          	sb	a0,0(a4)
    141c:	00c6a023          	sw	a2,0(a3)
    1420:	00008067          	ret
    1424:	00001797          	auipc	a5,0x1
    1428:	fe87a783          	lw	a5,-24(a5) # 240c <xfunc_out>
    142c:	00078463          	beqz	a5,1434 <xputc+0x30>
    1430:	00078067          	jr	a5
    1434:	00008067          	ret

00001438 <xputs>:
    1438:	ff010113          	addi	sp,sp,-16
    143c:	00812423          	sw	s0,8(sp)
    1440:	00112623          	sw	ra,12(sp)
    1444:	00050413          	mv	s0,a0
    1448:	00054503          	lbu	a0,0(a0)
    144c:	04050e63          	beqz	a0,14a8 <xputs+0x70>
    1450:	00912223          	sw	s1,4(sp)
    1454:	01212023          	sw	s2,0(sp)
    1458:	00001497          	auipc	s1,0x1
    145c:	fb048493          	addi	s1,s1,-80 # 2408 <outptr>
    1460:	00001917          	auipc	s2,0x1
    1464:	fac90913          	addi	s2,s2,-84 # 240c <xfunc_out>
    1468:	0140006f          	j	147c <xputs+0x44>
    146c:	00e4a023          	sw	a4,0(s1)
    1470:	00a78023          	sb	a0,0(a5)
    1474:	00044503          	lbu	a0,0(s0)
    1478:	02050463          	beqz	a0,14a0 <xputs+0x68>
    147c:	0004a783          	lw	a5,0(s1)
    1480:	00140413          	addi	s0,s0,1
    1484:	00178713          	addi	a4,a5,1
    1488:	fe0792e3          	bnez	a5,146c <xputs+0x34>
    148c:	00092783          	lw	a5,0(s2)
    1490:	fe0782e3          	beqz	a5,1474 <xputs+0x3c>
    1494:	000780e7          	jalr	a5
    1498:	00044503          	lbu	a0,0(s0)
    149c:	fe0510e3          	bnez	a0,147c <xputs+0x44>
    14a0:	00412483          	lw	s1,4(sp)
    14a4:	00012903          	lw	s2,0(sp)
    14a8:	00c12083          	lw	ra,12(sp)
    14ac:	00812403          	lw	s0,8(sp)
    14b0:	01010113          	addi	sp,sp,16
    14b4:	00008067          	ret

000014b8 <xprintf>:
    14b8:	f7010113          	addi	sp,sp,-144
    14bc:	05412c23          	sw	s4,88(sp)
    14c0:	05712623          	sw	s7,76(sp)
    14c4:	06112623          	sw	ra,108(sp)
    14c8:	06b12a23          	sw	a1,116(sp)
    14cc:	06c12c23          	sw	a2,120(sp)
    14d0:	06d12e23          	sw	a3,124(sp)
    14d4:	08e12023          	sw	a4,128(sp)
    14d8:	08f12223          	sw	a5,132(sp)
    14dc:	09012423          	sw	a6,136(sp)
    14e0:	09112623          	sw	a7,140(sp)
    14e4:	00050b93          	mv	s7,a0
    14e8:	00054503          	lbu	a0,0(a0)
    14ec:	07410a13          	addi	s4,sp,116
    14f0:	01412e23          	sw	s4,28(sp)
    14f4:	08050e63          	beqz	a0,1590 <xprintf+0xd8>
    14f8:	06812423          	sw	s0,104(sp)
    14fc:	07212023          	sw	s2,96(sp)
    1500:	05312e23          	sw	s3,92(sp)
    1504:	05512a23          	sw	s5,84(sp)
    1508:	05a12023          	sw	s10,64(sp)
    150c:	06912223          	sw	s1,100(sp)
    1510:	05612823          	sw	s6,80(sp)
    1514:	05812423          	sw	s8,72(sp)
    1518:	05912223          	sw	s9,68(sp)
    151c:	03b12e23          	sw	s11,60(sp)
    1520:	001b8413          	addi	s0,s7,1
    1524:	02500a93          	li	s5,37
    1528:	00900d13          	li	s10,9
    152c:	01000993          	li	s3,16
    1530:	00001917          	auipc	s2,0x1
    1534:	edc90913          	addi	s2,s2,-292 # 240c <xfunc_out>
    1538:	07550663          	beq	a0,s5,15a4 <xprintf+0xec>
    153c:	00001717          	auipc	a4,0x1
    1540:	ecc70713          	addi	a4,a4,-308 # 2408 <outptr>
    1544:	00072783          	lw	a5,0(a4)
    1548:	42078463          	beqz	a5,1970 <xprintf+0x4b8>
    154c:	00178693          	addi	a3,a5,1
    1550:	00a78023          	sb	a0,0(a5)
    1554:	00d72023          	sw	a3,0(a4)
    1558:	00040b93          	mv	s7,s0
    155c:	000bc503          	lbu	a0,0(s7)
    1560:	001b8413          	addi	s0,s7,1
    1564:	fc051ae3          	bnez	a0,1538 <xprintf+0x80>
    1568:	06812403          	lw	s0,104(sp)
    156c:	06412483          	lw	s1,100(sp)
    1570:	06012903          	lw	s2,96(sp)
    1574:	05c12983          	lw	s3,92(sp)
    1578:	05412a83          	lw	s5,84(sp)
    157c:	05012b03          	lw	s6,80(sp)
    1580:	04812c03          	lw	s8,72(sp)
    1584:	04412c83          	lw	s9,68(sp)
    1588:	04012d03          	lw	s10,64(sp)
    158c:	03c12d83          	lw	s11,60(sp)
    1590:	06c12083          	lw	ra,108(sp)
    1594:	05812a03          	lw	s4,88(sp)
    1598:	04c12b83          	lw	s7,76(sp)
    159c:	09010113          	addi	sp,sp,144
    15a0:	00008067          	ret
    15a4:	001bc503          	lbu	a0,1(s7)
    15a8:	03000793          	li	a5,48
    15ac:	3cf50a63          	beq	a0,a5,1980 <xprintf+0x4c8>
    15b0:	02d00793          	li	a5,45
    15b4:	3cf50e63          	beq	a0,a5,1990 <xprintf+0x4d8>
    15b8:	002b8b93          	addi	s7,s7,2
    15bc:	00000893          	li	a7,0
    15c0:	fd050793          	addi	a5,a0,-48
    15c4:	0ff7f793          	zext.b	a5,a5
    15c8:	00000493          	li	s1,0
    15cc:	02fd6663          	bltu	s10,a5,15f8 <xprintf+0x140>
    15d0:	00249793          	slli	a5,s1,0x2
    15d4:	009787b3          	add	a5,a5,s1
    15d8:	001b8b93          	addi	s7,s7,1
    15dc:	00179793          	slli	a5,a5,0x1
    15e0:	00a787b3          	add	a5,a5,a0
    15e4:	fffbc503          	lbu	a0,-1(s7)
    15e8:	fd078493          	addi	s1,a5,-48
    15ec:	fd050793          	addi	a5,a0,-48
    15f0:	0ff7f793          	zext.b	a5,a5
    15f4:	fcfd7ee3          	bgeu	s10,a5,15d0 <xprintf+0x118>
    15f8:	0df57793          	andi	a5,a0,223
    15fc:	04c00713          	li	a4,76
    1600:	04e78463          	beq	a5,a4,1648 <xprintf+0x190>
    1604:	f60502e3          	beqz	a0,1568 <xprintf+0xb0>
    1608:	06000793          	li	a5,96
    160c:	00050693          	mv	a3,a0
    1610:	00a7f663          	bgeu	a5,a0,161c <xprintf+0x164>
    1614:	fe050693          	addi	a3,a0,-32
    1618:	0ff6f693          	zext.b	a3,a3
    161c:	fbe68793          	addi	a5,a3,-66
    1620:	0ff7f793          	zext.b	a5,a5
    1624:	01600713          	li	a4,22
    1628:	02f76863          	bltu	a4,a5,1658 <xprintf+0x1a0>
    162c:	00000717          	auipc	a4,0x0
    1630:	61070713          	addi	a4,a4,1552 # 1c3c <main+0x138>
    1634:	00279793          	slli	a5,a5,0x2
    1638:	00e787b3          	add	a5,a5,a4
    163c:	0007a783          	lw	a5,0(a5)
    1640:	00e787b3          	add	a5,a5,a4
    1644:	00078067          	jr	a5
    1648:	000bc503          	lbu	a0,0(s7)
    164c:	0048e893          	ori	a7,a7,4
    1650:	001b8b93          	addi	s7,s7,1
    1654:	fb1ff06f          	j	1604 <xprintf+0x14c>
    1658:	00001717          	auipc	a4,0x1
    165c:	db070713          	addi	a4,a4,-592 # 2408 <outptr>
    1660:	00072783          	lw	a5,0(a4)
    1664:	3a078463          	beqz	a5,1a0c <xprintf+0x554>
    1668:	00178693          	addi	a3,a5,1
    166c:	00a78023          	sb	a0,0(a5)
    1670:	00d72023          	sw	a3,0(a4)
    1674:	ee9ff06f          	j	155c <xprintf+0xa4>
    1678:	0048f713          	andi	a4,a7,4
    167c:	000a2603          	lw	a2,0(s4)
    1680:	004a0793          	addi	a5,s4,4
    1684:	32071863          	bnez	a4,19b4 <xprintf+0x4fc>
    1688:	04400713          	li	a4,68
    168c:	44e69c63          	bne	a3,a4,1ae4 <xprintf+0x62c>
    1690:	00060713          	mv	a4,a2
    1694:	32064863          	bltz	a2,19c4 <xprintf+0x50c>
    1698:	00078a13          	mv	s4,a5
    169c:	00000e13          	li	t3,0
    16a0:	00a00693          	li	a3,10
    16a4:	0200006f          	j	16c4 <xprintf+0x20c>
    16a8:	0048f793          	andi	a5,a7,4
    16ac:	2e079a63          	bnez	a5,19a0 <xprintf+0x4e8>
    16b0:	00200693          	li	a3,2
    16b4:	004a0793          	addi	a5,s4,4
    16b8:	000a2703          	lw	a4,0(s4)
    16bc:	00000e13          	li	t3,0
    16c0:	00078a13          	mv	s4,a5
    16c4:	f8850513          	addi	a0,a0,-120
    16c8:	00700313          	li	t1,7
    16cc:	00051463          	bnez	a0,16d4 <xprintf+0x21c>
    16d0:	02700313          	li	t1,39
    16d4:	00000513          	li	a0,0
    16d8:	02010b13          	addi	s6,sp,32
    16dc:	0080006f          	j	16e4 <xprintf+0x22c>
    16e0:	00040513          	mv	a0,s0
    16e4:	02d77633          	remu	a2,a4,a3
    16e8:	00070813          	mv	a6,a4
    16ec:	0ff67793          	zext.b	a5,a2
    16f0:	02d75733          	divu	a4,a4,a3
    16f4:	00cd7663          	bgeu	s10,a2,1700 <xprintf+0x248>
    16f8:	006787b3          	add	a5,a5,t1
    16fc:	0ff7f793          	zext.b	a5,a5
    1700:	00150413          	addi	s0,a0,1
    1704:	03078793          	addi	a5,a5,48
    1708:	008b0633          	add	a2,s6,s0
    170c:	fef60fa3          	sb	a5,-1(a2)
    1710:	00d86663          	bltu	a6,a3,171c <xprintf+0x264>
    1714:	fd3416e3          	bne	s0,s3,16e0 <xprintf+0x228>
    1718:	00f00513          	li	a0,15
    171c:	000e0a63          	beqz	t3,1730 <xprintf+0x278>
    1720:	002407b3          	add	a5,s0,sp
    1724:	02d00713          	li	a4,45
    1728:	00250413          	addi	s0,a0,2
    172c:	02e78023          	sb	a4,32(a5)
    1730:	0018f513          	andi	a0,a7,1
    1734:	fff50513          	addi	a0,a0,-1
    1738:	ff057c93          	andi	s9,a0,-16
    173c:	00001c17          	auipc	s8,0x1
    1740:	cccc0c13          	addi	s8,s8,-820 # 2408 <outptr>
    1744:	0028f893          	andi	a7,a7,2
    1748:	00812623          	sw	s0,12(sp)
    174c:	000c2783          	lw	a5,0(s8)
    1750:	030c8c93          	addi	s9,s9,48
    1754:	04089c63          	bnez	a7,17ac <xprintf+0x2f4>
    1758:	00140d93          	addi	s11,s0,1
    175c:	36947463          	bgeu	s0,s1,1ac4 <xprintf+0x60c>
    1760:	00148713          	addi	a4,s1,1
    1764:	00e12623          	sw	a4,12(sp)
    1768:	02079463          	bnez	a5,1790 <xprintf+0x2d8>
    176c:	00092703          	lw	a4,0(s2)
    1770:	32070463          	beqz	a4,1a98 <xprintf+0x5e0>
    1774:	000c8513          	mv	a0,s9
    1778:	000700e7          	jalr	a4
    177c:	000c2783          	lw	a5,0(s8)
    1780:	001d8713          	addi	a4,s11,1
    1784:	029d8463          	beq	s11,s1,17ac <xprintf+0x2f4>
    1788:	00070d93          	mv	s11,a4
    178c:	fe0780e3          	beqz	a5,176c <xprintf+0x2b4>
    1790:	00078713          	mv	a4,a5
    1794:	00178793          	addi	a5,a5,1
    1798:	01970023          	sb	s9,0(a4)
    179c:	00fc2023          	sw	a5,0(s8)
    17a0:	000d8713          	mv	a4,s11
    17a4:	001d8d93          	addi	s11,s11,1
    17a8:	fe9714e3          	bne	a4,s1,1790 <xprintf+0x2d8>
    17ac:	008b0433          	add	s0,s6,s0
    17b0:	01c0006f          	j	17cc <xprintf+0x314>
    17b4:	00178713          	addi	a4,a5,1
    17b8:	00a78023          	sb	a0,0(a5)
    17bc:	00ec2023          	sw	a4,0(s8)
    17c0:	fff40413          	addi	s0,s0,-1
    17c4:	028b0263          	beq	s6,s0,17e8 <xprintf+0x330>
    17c8:	000c2783          	lw	a5,0(s8)
    17cc:	fff44503          	lbu	a0,-1(s0)
    17d0:	fe0792e3          	bnez	a5,17b4 <xprintf+0x2fc>
    17d4:	00092783          	lw	a5,0(s2)
    17d8:	fe0784e3          	beqz	a5,17c0 <xprintf+0x308>
    17dc:	fff40413          	addi	s0,s0,-1
    17e0:	000780e7          	jalr	a5
    17e4:	fe8b12e3          	bne	s6,s0,17c8 <xprintf+0x310>
    17e8:	00c12783          	lw	a5,12(sp)
    17ec:	00178413          	addi	s0,a5,1
    17f0:	d697f6e3          	bgeu	a5,s1,155c <xprintf+0xa4>
    17f4:	02000c93          	li	s9,32
    17f8:	01c0006f          	j	1814 <xprintf+0x35c>
    17fc:	00178713          	addi	a4,a5,1
    1800:	01978023          	sb	s9,0(a5)
    1804:	00ec2023          	sw	a4,0(s8)
    1808:	00140793          	addi	a5,s0,1
    180c:	d48488e3          	beq	s1,s0,155c <xprintf+0xa4>
    1810:	00078413          	mv	s0,a5
    1814:	000c2783          	lw	a5,0(s8)
    1818:	fe0792e3          	bnez	a5,17fc <xprintf+0x344>
    181c:	00092783          	lw	a5,0(s2)
    1820:	fe0784e3          	beqz	a5,1808 <xprintf+0x350>
    1824:	02000513          	li	a0,32
    1828:	000780e7          	jalr	a5
    182c:	fddff06f          	j	1808 <xprintf+0x350>
    1830:	00001717          	auipc	a4,0x1
    1834:	bd870713          	addi	a4,a4,-1064 # 2408 <outptr>
    1838:	00072783          	lw	a5,0(a4)
    183c:	000a4503          	lbu	a0,0(s4)
    1840:	004a0413          	addi	s0,s4,4
    1844:	1a078863          	beqz	a5,19f4 <xprintf+0x53c>
    1848:	00178693          	addi	a3,a5,1
    184c:	00a78023          	sb	a0,0(a5)
    1850:	00d72023          	sw	a3,0(a4)
    1854:	00040a13          	mv	s4,s0
    1858:	d05ff06f          	j	155c <xprintf+0xa4>
    185c:	0048f793          	andi	a5,a7,4
    1860:	18078463          	beqz	a5,19e8 <xprintf+0x530>
    1864:	000a2703          	lw	a4,0(s4)
    1868:	00000e13          	li	t3,0
    186c:	004a0a13          	addi	s4,s4,4
    1870:	01000693          	li	a3,16
    1874:	e51ff06f          	j	16c4 <xprintf+0x20c>
    1878:	000a2c83          	lw	s9,0(s4)
    187c:	004a0793          	addi	a5,s4,4
    1880:	00f12623          	sw	a5,12(sp)
    1884:	000cc503          	lbu	a0,0(s9)
    1888:	0028f893          	andi	a7,a7,2
    188c:	24050063          	beqz	a0,1acc <xprintf+0x614>
    1890:	00000413          	li	s0,0
    1894:	00040713          	mv	a4,s0
    1898:	00140413          	addi	s0,s0,1
    189c:	008c87b3          	add	a5,s9,s0
    18a0:	0007c783          	lbu	a5,0(a5)
    18a4:	fe0798e3          	bnez	a5,1894 <xprintf+0x3dc>
    18a8:	00270a13          	addi	s4,a4,2
    18ac:	00001c17          	auipc	s8,0x1
    18b0:	b5cc0c13          	addi	s8,s8,-1188 # 2408 <outptr>
    18b4:	16088663          	beqz	a7,1a20 <xprintf+0x568>
    18b8:	00001d97          	auipc	s11,0x1
    18bc:	b54d8d93          	addi	s11,s11,-1196 # 240c <xfunc_out>
    18c0:	0180006f          	j	18d8 <xprintf+0x420>
    18c4:	00170693          	addi	a3,a4,1
    18c8:	00a70023          	sb	a0,0(a4)
    18cc:	00dc2023          	sw	a3,0(s8)
    18d0:	000cc503          	lbu	a0,0(s9)
    18d4:	02050263          	beqz	a0,18f8 <xprintf+0x440>
    18d8:	000c2703          	lw	a4,0(s8)
    18dc:	001c8c93          	addi	s9,s9,1
    18e0:	fe0712e3          	bnez	a4,18c4 <xprintf+0x40c>
    18e4:	000da703          	lw	a4,0(s11)
    18e8:	fe0704e3          	beqz	a4,18d0 <xprintf+0x418>
    18ec:	000700e7          	jalr	a4
    18f0:	000cc503          	lbu	a0,0(s9)
    18f4:	fe0512e3          	bnez	a0,18d8 <xprintf+0x420>
    18f8:	04947a63          	bgeu	s0,s1,194c <xprintf+0x494>
    18fc:	00001c17          	auipc	s8,0x1
    1900:	b0cc0c13          	addi	s8,s8,-1268 # 2408 <outptr>
    1904:	00001417          	auipc	s0,0x1
    1908:	b0840413          	addi	s0,s0,-1272 # 240c <xfunc_out>
    190c:	02000c93          	li	s9,32
    1910:	01c0006f          	j	192c <xprintf+0x474>
    1914:	00170693          	addi	a3,a4,1
    1918:	01970023          	sb	s9,0(a4)
    191c:	00dc2023          	sw	a3,0(s8)
    1920:	001a0713          	addi	a4,s4,1
    1924:	029a7463          	bgeu	s4,s1,194c <xprintf+0x494>
    1928:	00070a13          	mv	s4,a4
    192c:	000c2703          	lw	a4,0(s8)
    1930:	fe0712e3          	bnez	a4,1914 <xprintf+0x45c>
    1934:	00042703          	lw	a4,0(s0)
    1938:	fe0704e3          	beqz	a4,1920 <xprintf+0x468>
    193c:	02000513          	li	a0,32
    1940:	000700e7          	jalr	a4
    1944:	001a0713          	addi	a4,s4,1
    1948:	fe9a60e3          	bltu	s4,s1,1928 <xprintf+0x470>
    194c:	00c12a03          	lw	s4,12(sp)
    1950:	c0dff06f          	j	155c <xprintf+0xa4>
    1954:	0048f793          	andi	a5,a7,4
    1958:	08078263          	beqz	a5,19dc <xprintf+0x524>
    195c:	000a2703          	lw	a4,0(s4)
    1960:	00000e13          	li	t3,0
    1964:	004a0a13          	addi	s4,s4,4
    1968:	00800693          	li	a3,8
    196c:	d59ff06f          	j	16c4 <xprintf+0x20c>
    1970:	00092783          	lw	a5,0(s2)
    1974:	be0782e3          	beqz	a5,1558 <xprintf+0xa0>
    1978:	000780e7          	jalr	a5
    197c:	bddff06f          	j	1558 <xprintf+0xa0>
    1980:	002bc503          	lbu	a0,2(s7)
    1984:	00100893          	li	a7,1
    1988:	003b8b93          	addi	s7,s7,3
    198c:	c35ff06f          	j	15c0 <xprintf+0x108>
    1990:	002bc503          	lbu	a0,2(s7)
    1994:	00200893          	li	a7,2
    1998:	003b8b93          	addi	s7,s7,3
    199c:	c25ff06f          	j	15c0 <xprintf+0x108>
    19a0:	000a2703          	lw	a4,0(s4)
    19a4:	00000e13          	li	t3,0
    19a8:	004a0a13          	addi	s4,s4,4
    19ac:	00200693          	li	a3,2
    19b0:	d15ff06f          	j	16c4 <xprintf+0x20c>
    19b4:	04400593          	li	a1,68
    19b8:	00060713          	mv	a4,a2
    19bc:	ccb69ee3          	bne	a3,a1,1698 <xprintf+0x1e0>
    19c0:	cc065ce3          	bgez	a2,1698 <xprintf+0x1e0>
    19c4:	40c00733          	neg	a4,a2
    19c8:	0088e893          	ori	a7,a7,8
    19cc:	00078a13          	mv	s4,a5
    19d0:	00800e13          	li	t3,8
    19d4:	00a00693          	li	a3,10
    19d8:	cedff06f          	j	16c4 <xprintf+0x20c>
    19dc:	00800693          	li	a3,8
    19e0:	004a0793          	addi	a5,s4,4
    19e4:	cd5ff06f          	j	16b8 <xprintf+0x200>
    19e8:	01000693          	li	a3,16
    19ec:	004a0793          	addi	a5,s4,4
    19f0:	cc9ff06f          	j	16b8 <xprintf+0x200>
    19f4:	00001797          	auipc	a5,0x1
    19f8:	a187a783          	lw	a5,-1512(a5) # 240c <xfunc_out>
    19fc:	e4078ce3          	beqz	a5,1854 <xprintf+0x39c>
    1a00:	000780e7          	jalr	a5
    1a04:	00040a13          	mv	s4,s0
    1a08:	b55ff06f          	j	155c <xprintf+0xa4>
    1a0c:	00001797          	auipc	a5,0x1
    1a10:	a007a783          	lw	a5,-1536(a5) # 240c <xfunc_out>
    1a14:	b40784e3          	beqz	a5,155c <xprintf+0xa4>
    1a18:	000780e7          	jalr	a5
    1a1c:	b41ff06f          	j	155c <xprintf+0xa4>
    1a20:	0c947663          	bgeu	s0,s1,1aec <xprintf+0x634>
    1a24:	000a0b13          	mv	s6,s4
    1a28:	00001c17          	auipc	s8,0x1
    1a2c:	9e0c0c13          	addi	s8,s8,-1568 # 2408 <outptr>
    1a30:	00001d97          	auipc	s11,0x1
    1a34:	9dcd8d93          	addi	s11,s11,-1572 # 240c <xfunc_out>
    1a38:	02000413          	li	s0,32
    1a3c:	01c0006f          	j	1a58 <xprintf+0x5a0>
    1a40:	00170613          	addi	a2,a4,1
    1a44:	00870023          	sb	s0,0(a4)
    1a48:	00cc2023          	sw	a2,0(s8)
    1a4c:	001b0713          	addi	a4,s6,1
    1a50:	029b7463          	bgeu	s6,s1,1a78 <xprintf+0x5c0>
    1a54:	00070b13          	mv	s6,a4
    1a58:	000c2703          	lw	a4,0(s8)
    1a5c:	fe0712e3          	bnez	a4,1a40 <xprintf+0x588>
    1a60:	000da703          	lw	a4,0(s11)
    1a64:	fe0704e3          	beqz	a4,1a4c <xprintf+0x594>
    1a68:	02000513          	li	a0,32
    1a6c:	000700e7          	jalr	a4
    1a70:	001b0713          	addi	a4,s6,1
    1a74:	fe9b60e3          	bltu	s6,s1,1a54 <xprintf+0x59c>
    1a78:	00000413          	li	s0,0
    1a7c:	0344f663          	bgeu	s1,s4,1aa8 <xprintf+0x5f0>
    1a80:	000cc503          	lbu	a0,0(s9)
    1a84:	001a0793          	addi	a5,s4,1
    1a88:	00f40433          	add	s0,s0,a5
    1a8c:	00140a13          	addi	s4,s0,1
    1a90:	e20514e3          	bnez	a0,18b8 <xprintf+0x400>
    1a94:	e65ff06f          	j	18f8 <xprintf+0x440>
    1a98:	001d8713          	addi	a4,s11,1
    1a9c:	d09d88e3          	beq	s11,s1,17ac <xprintf+0x2f4>
    1aa0:	00070d93          	mv	s11,a4
    1aa4:	cc9ff06f          	j	176c <xprintf+0x2b4>
    1aa8:	000cc503          	lbu	a0,0(s9)
    1aac:	41448433          	sub	s0,s1,s4
    1ab0:	001a0793          	addi	a5,s4,1
    1ab4:	00f40433          	add	s0,s0,a5
    1ab8:	00140a13          	addi	s4,s0,1
    1abc:	de051ee3          	bnez	a0,18b8 <xprintf+0x400>
    1ac0:	e39ff06f          	j	18f8 <xprintf+0x440>
    1ac4:	01b12623          	sw	s11,12(sp)
    1ac8:	ce5ff06f          	j	17ac <xprintf+0x2f4>
    1acc:	00100a13          	li	s4,1
    1ad0:	00000413          	li	s0,0
    1ad4:	e20892e3          	bnez	a7,18f8 <xprintf+0x440>
    1ad8:	f40496e3          	bnez	s1,1a24 <xprintf+0x56c>
    1adc:	00c12a03          	lw	s4,12(sp)
    1ae0:	a7dff06f          	j	155c <xprintf+0xa4>
    1ae4:	00a00693          	li	a3,10
    1ae8:	bd1ff06f          	j	16b8 <xprintf+0x200>
    1aec:	000a0413          	mv	s0,s4
    1af0:	00370a13          	addi	s4,a4,3
    1af4:	dc5ff06f          	j	18b8 <xprintf+0x400>
    1af8:	0000                	.insn	2, 0x
    1afa:	0000                	.insn	2, 0x
    1afc:	0000                	.insn	2, 0x
    1afe:	0000                	.insn	2, 0x

00001b00 <exit>:
    1b00:	10500073          	wfi

Disassembly of section .text.startup:

00001b04 <main>:
    1b04:	fffff2b7          	lui	t0,0xfffff
    1b08:	84028293          	addi	t0,t0,-1984 # ffffe840 <__global_pointer$+0xffffbc38>
    1b0c:	81010113          	addi	sp,sp,-2032
    1b10:	000017b7          	lui	a5,0x1
    1b14:	7e112623          	sw	ra,2028(sp)
    1b18:	7e812423          	sw	s0,2024(sp)
    1b1c:	7e912223          	sw	s1,2020(sp)
    1b20:	d4078793          	addi	a5,a5,-704 # d40 <_start+0xd40>
    1b24:	00510133          	add	sp,sp,t0
    1b28:	00f104b3          	add	s1,sp,a5
    1b2c:	02000813          	li	a6,32
    1b30:	00080793          	mv	a5,a6
    1b34:	00048513          	mv	a0,s1
    1b38:	00600713          	li	a4,6
    1b3c:	00100693          	li	a3,1
    1b40:	00000617          	auipc	a2,0x0
    1b44:	15860613          	addi	a2,a2,344 # 1c98 <kernel6_5x5>
    1b48:	00000597          	auipc	a1,0x0
    1b4c:	1e858593          	addi	a1,a1,488 # 1d30 <input_data>
    1b50:	cb0ff0ef          	jal	1000 <rvv_conv2d>
    1b54:	26810413          	addi	s0,sp,616
    1b58:	01c00713          	li	a4,28
    1b5c:	00048593          	mv	a1,s1
    1b60:	00040513          	mv	a0,s0
    1b64:	00070693          	mv	a3,a4
    1b68:	00600613          	li	a2,6
    1b6c:	e00ff0ef          	jal	116c <rvv_maxpool>
    1b70:	00e00813          	li	a6,14
    1b74:	70010493          	addi	s1,sp,1792
    1b78:	00080793          	mv	a5,a6
    1b7c:	00040593          	mv	a1,s0
    1b80:	00048513          	mv	a0,s1
    1b84:	01000713          	li	a4,16
    1b88:	00600693          	li	a3,6
    1b8c:	00000617          	auipc	a2,0x0
    1b90:	5a460613          	addi	a2,a2,1444 # 2130 <kernel16_5x5>
    1b94:	c6cff0ef          	jal	1000 <rvv_conv2d>
    1b98:	0d810413          	addi	s0,sp,216
    1b9c:	00a00713          	li	a4,10
    1ba0:	00048593          	mv	a1,s1
    1ba4:	00040513          	mv	a0,s0
    1ba8:	00070693          	mv	a3,a4
    1bac:	01000613          	li	a2,16
    1bb0:	dbcff0ef          	jal	116c <rvv_maxpool>
    1bb4:	06010493          	addi	s1,sp,96
    1bb8:	00040593          	mv	a1,s0
    1bbc:	00048513          	mv	a0,s1
    1bc0:	07800713          	li	a4,120
    1bc4:	19000693          	li	a3,400
    1bc8:	00000617          	auipc	a2,0x0
    1bcc:	6f860613          	addi	a2,a2,1784 # 22c0 <fc120>
    1bd0:	edcff0ef          	jal	12ac <rvv_fc>
    1bd4:	00c10413          	addi	s0,sp,12
    1bd8:	00048593          	mv	a1,s1
    1bdc:	00040513          	mv	a0,s0
    1be0:	05400713          	li	a4,84
    1be4:	07800693          	li	a3,120
    1be8:	00000617          	auipc	a2,0x0
    1bec:	75060613          	addi	a2,a2,1872 # 2338 <fc84>
    1bf0:	ebcff0ef          	jal	12ac <rvv_fc>
    1bf4:	00010513          	mv	a0,sp
    1bf8:	00040593          	mv	a1,s0
    1bfc:	00a00713          	li	a4,10
    1c00:	05400693          	li	a3,84
    1c04:	00000617          	auipc	a2,0x0
    1c08:	78860613          	addi	a2,a2,1928 # 238c <fc10>
    1c0c:	ea0ff0ef          	jal	12ac <rvv_fc>
    1c10:	000012b7          	lui	t0,0x1
    1c14:	7c028293          	addi	t0,t0,1984 # 17c0 <xprintf+0x308>
    1c18:	00510133          	add	sp,sp,t0
    1c1c:	7ec12083          	lw	ra,2028(sp)
    1c20:	7e812403          	lw	s0,2024(sp)
    1c24:	7e412483          	lw	s1,2020(sp)
    1c28:	00000513          	li	a0,0
    1c2c:	7f010113          	addi	sp,sp,2032
    1c30:	00008067          	ret
    1c34:	fff00513          	li	a0,-1
    1c38:	00008067          	ret
